target datalayout = "e-m:e-p270:32:32-p271:32:32-p272:64:64-i64:64-i128:128-f80:128-n8:16:32:64-S128"
target triple = "x86_64-pc-linux-gnu"

%class.Metadata = type { ptr }
%class.OopHandle = type { ptr }
%class.AccessFlags = type { i32 }
%class.InstanceKlass = type { %class.Klass.base, ptr, ptr, ptr, ptr, ptr, ptr, ptr, ptr, ptr, ptr, i32, i32, i32, i32, i16, i16, i16, i16, i8, i8, i8, i8, %class.InstanceKlassFlags, ptr, ptr, ptr, ptr, ptr, i64, ptr, ptr, ptr, ptr, ptr, ptr, ptr, ptr, ptr, ptr, ptr, ptr, ptr }
%class.Klass.base = type <{ %class.Metadata, i32, i32, i32, i32, ptr, ptr, ptr, [8 x ptr], %class.OopHandle, ptr, ptr, ptr, ptr, ptr, i32, %class.AccessFlags, i64, i64, i8, i8, i16, i16, [2 x i8], i32 }>
%class.InstanceKlassFlags = type <{ i16, i8, i8 }>

@g_assert_poison = external global ptr, align 8
@.str.12 = private unnamed_addr constant [44 x i8] c"src/hotspot/share/classfile/javaClasses.cpp\00", align 1
@.str.154 = private unnamed_addr constant [54 x i8] c"guarantee(k != nullptr && k->is_initialized()) failed\00", align 1
@.str.155 = private unnamed_addr constant [31 x i8] c"must be loaded and initialized\00", align 1
@_ZN17java_lang_Boolean19_static_TRUE_offsetE = hidden global i32 0, align 4
@_ZN17java_lang_Boolean20_static_FALSE_offsetE = hidden global i32 0, align 4
@.str.157 = private unnamed_addr constant [5 x i8] c"TRUE\00", align 1
@.str.158 = private unnamed_addr constant [6 x i8] c"FALSE\00", align 1
@_ZN6Symbol11_vm_symbolsE = external global [0 x ptr], align 8

; Function Attrs: mustprogress nounwind uwtable
define linkonce_odr hidden noundef ptr @_ZN9vmSymbols27java_lang_Boolean_signatureEv() #1 comdat align 2 {
  %1 = load ptr, ptr getelementptr inbounds ([0 x ptr], ptr @_ZN6Symbol11_vm_symbolsE, i64 0, i64 508), align 8
  ret ptr %1
}

; Function Attrs: mustprogress nounwind uwtable
define linkonce_odr hidden noundef zeroext i1 @_ZNK13InstanceKlass14is_initializedEv(ptr noundef nonnull align 8 dereferenceable(464) %0) #1 comdat align 2 {
  %2 = alloca ptr, align 8
  store ptr %0, ptr %2, align 8
  %3 = load ptr, ptr %2, align 8
  %4 = getelementptr inbounds %class.InstanceKlass, ptr %3, i32 0, i32 20
  %5 = load volatile i8, ptr %4, align 1
  %6 = zext i8 %5 to i32
  %7 = icmp eq i32 %6, 4
  ret i1 %7
}

; Function Attrs: mustprogress nounwind uwtable
define hidden void @_ZN17java_lang_Boolean15compute_offsetsEP13InstanceKlass(ptr noundef %0) #1 align 2 {
  %2 = alloca ptr, align 8
  store ptr %0, ptr %2, align 8
  br label %3

3:                                                ; preds = %1
  %4 = load ptr, ptr %2, align 8
  %5 = icmp ne ptr %4, null
  br i1 %5, label %6, label %9

6:                                                ; preds = %3
  %7 = load ptr, ptr %2, align 8
  %8 = call noundef zeroext i1 @_ZNK13InstanceKlass14is_initializedEv(ptr noundef nonnull align 8 dereferenceable(464) %7)
  br i1 %8, label %11, label %9

9:                                                ; preds = %6, %3
  %10 = load ptr, ptr @g_assert_poison, align 8
  store i8 88, ptr %10, align 1
  call void (ptr, i32, ptr, ptr, ...) @_Z15report_vm_errorPKciS0_S0_z(ptr noundef @.str.12, i32 noundef 5185, ptr noundef @.str.154, ptr noundef @.str.155) #12
  unreachable

11:                                               ; preds = %6
  br label %12

12:                                               ; preds = %11
  %13 = load ptr, ptr %2, align 8
  %14 = call noundef ptr @_ZN9vmSymbols27java_lang_Boolean_signatureEv()
  call void @_ZN11JavaClasses14compute_offsetERiP13InstanceKlassPKcP6Symbolb(ptr noundef nonnull align 4 dereferenceable(4) @_ZN17java_lang_Boolean19_static_TRUE_offsetE, ptr noundef %13, ptr noundef @.str.157, ptr noundef %14, i1 noundef zeroext true)
  %15 = load ptr, ptr %2, align 8
  %16 = call noundef ptr @_ZN9vmSymbols27java_lang_Boolean_signatureEv()
  call void @_ZN11JavaClasses14compute_offsetERiP13InstanceKlassPKcP6Symbolb(ptr noundef nonnull align 4 dereferenceable(4) @_ZN17java_lang_Boolean20_static_FALSE_offsetE, ptr noundef %15, ptr noundef @.str.158, ptr noundef %16, i1 noundef zeroext true)
  ret void
}