; Function Attrs: mustprogress nounwind uwtable
define hidden void @_ZN17java_lang_Boolean15compute_offsetsEP13InstanceKlass(ptr noundef %0) local_unnamed_addr #0 align 2 {
  %.not = icmp eq ptr %0, null
  br i1 %.not, label %6, label %2

2:                                                ; preds = %1
  %3 = getelementptr inbounds i8, ptr %0, i64 305
  %4 = load volatile i8, ptr %3, align 1
  %5 = icmp eq i8 %4, 4
  br i1 %5, label %8, label %6

6:                                                ; preds = %2, %1
  %7 = load ptr, ptr @g_assert_poison, align 8
  store i8 88, ptr %7, align 1
  tail call void (ptr, i32, ptr, ptr, ...) @_Z15report_vm_errorPKciS0_S0_z(ptr noundef nonnull @.str.12, i32 noundef 5185, ptr noundef nonnull @.str.154, ptr noundef nonnull @.str.155) #21
  unreachable

8:                                                ; preds = %2
  %9 = load ptr, ptr getelementptr inbounds (i8, ptr @_ZN6Symbol11_vm_symbolsE, i64 4064), align 8
  tail call void @_ZN11JavaClasses14compute_offsetERiP13InstanceKlassPKcP6Symbolb(ptr noundef nonnull align 4 dereferenceable(4) @_ZN17java_lang_Boolean19_static_TRUE_offsetE, ptr noundef nonnull %0, ptr noundef nonnull @.str.157, ptr noundef %9, i1 noundef zeroext true)
  %10 = load ptr, ptr getelementptr inbounds (i8, ptr @_ZN6Symbol11_vm_symbolsE, i64 4064), align 8
  tail call void @_ZN11JavaClasses14compute_offsetERiP13InstanceKlassPKcP6Symbolb(ptr noundef nonnull align 4 dereferenceable(4) @_ZN17java_lang_Boolean20_static_FALSE_offsetE, ptr noundef nonnull %0, ptr noundef nonnull @.str.158, ptr noundef %10, i1 noundef zeroext true)
  ret void
}